target datalayout = "e-m:e-p270:32:32-p271:32:32-p272:64:64-i64:64-i128:128-f80:128-n8:16:32:64-S128"
target triple = "x86_64-pc-linux-gnu"

%struct.H5FL_reg_head_t = type { i8, i32, i32, ptr, i64, ptr }
%struct.H5_atclose_node_t = type { ptr, ptr, ptr }

@H5_libinit_g = global i8 0, align 1
@H5_libterm_g = global i8 0, align 1
@.str.30 = private unnamed_addr constant [96 x i8] c"generated/home/dtcxzyw/WorkSpace/Projects/compilers/llvm-opt-benchmark/bench/hdf5/hdf5/src/H5.c\00", align 1
@H5E_FUNC_g = external global i64, align 8
@H5E_CANTINIT_g = external global i64, align 8
@H5_atclose_head = internal global ptr null, align 8
@H5_H5_atclose_node_t_reg_free_list = internal global %struct.H5FL_reg_head_t { i8 0, i32 0, i32 0, ptr @.str.87, i64 24, ptr null }, align 8
@.str.66 = private unnamed_addr constant [30 x i8] c"library initialization failed\00", align 1
@H5E_CANTSET_g = external global i64, align 8
@.str.67 = private unnamed_addr constant [22 x i8] c"can't set API context\00", align 1
@H5E_RESOURCE_g = external global i64, align 8
@__func__.H5atclose = private unnamed_addr constant [10 x i8] c"H5atclose\00", align 1
@H5E_ARGS_g = external global i64, align 8
@H5E_BADVALUE_g = external global i64, align 8
@.str.84 = private unnamed_addr constant [18 x i8] c"NULL func pointer\00", align 1
@H5E_CANTALLOC_g = external global i64, align 8
@.str.85 = private unnamed_addr constant [30 x i8] c"can't allocate 'atclose' node\00", align 1

; Function Attrs: nounwind uwtable
define i32 @H5atclose(ptr noundef %0, ptr noundef %1) #0 {
  %3 = alloca ptr, align 8
  %4 = alloca ptr, align 8
  %5 = alloca ptr, align 8
  %6 = alloca i32, align 4
  %7 = alloca i8, align 1
  %8 = alloca i8, align 1
  store ptr %0, ptr %3, align 8
  store ptr %1, ptr %4, align 8
  store i32 0, ptr %6, align 4
  store i8 0, ptr %7, align 1
  store i8 0, ptr %8, align 1
  %9 = load i8, ptr @H5_libinit_g, align 1
  %10 = trunc i8 %9 to i1
  br i1 %10, label %15, label %11

11:                                               ; preds = %2
  %12 = load i8, ptr @H5_libterm_g, align 1
  %13 = trunc i8 %12 to i1
  %14 = xor i1 %13, true
  br label %15

15:                                               ; preds = %11, %2
  %16 = phi i1 [ false, %2 ], [ %14, %11 ]
  %17 = xor i1 %16, true
  %18 = xor i1 %17, true
  %19 = zext i1 %18 to i32
  %20 = sext i32 %19 to i64
  %21 = icmp ne i64 %20, 0
  br i1 %21, label %22, label %46

22:                                               ; preds = %15
  %23 = call i32 @H5_init_library()
  %24 = icmp slt i32 %23, 0
  %25 = xor i1 %24, true
  %26 = xor i1 %25, true
  %27 = zext i1 %26 to i32
  %28 = sext i32 %27 to i64
  %29 = icmp ne i64 %28, 0
  br i1 %29, label %30, label %45

30:                                               ; preds = %22
  br label %31

31:                                               ; preds = %30
  br label %32

32:                                               ; preds = %31
  br label %33

33:                                               ; preds = %32
  %34 = load i64, ptr @H5E_FUNC_g, align 8
  %35 = load i64, ptr @H5E_CANTINIT_g, align 8
  %36 = call i32 (ptr, ptr, i32, i64, i64, ptr, ...) @H5E_printf_stack(ptr noundef @.str.30, ptr noundef @__func__.H5atclose, i32 noundef 1042, i64 noundef %34, i64 noundef %35, ptr noundef @.str.66)
  br label %37

37:                                               ; preds = %33
  store i8 1, ptr %8, align 1
  %38 = load i8, ptr %8, align 1
  %39 = trunc i8 %38 to i1
  %40 = zext i1 %39 to i8
  store i8 %40, ptr %8, align 1
  br label %41

41:                                               ; preds = %37
  br label %42

42:                                               ; preds = %41
  store i32 -1, ptr %6, align 4
  br label %118

43:                                               ; No predecessors!
  br label %44

44:                                               ; preds = %43
  br label %45

45:                                               ; preds = %44, %22
  br label %46

46:                                               ; preds = %45, %15
  %47 = call i32 @H5CX_push()
  %48 = icmp slt i32 %47, 0
  %49 = xor i1 %48, true
  %50 = xor i1 %49, true
  %51 = zext i1 %50 to i32
  %52 = sext i32 %51 to i64
  %53 = icmp ne i64 %52, 0
  br i1 %53, label %54, label %69

54:                                               ; preds = %46
  br label %55

55:                                               ; preds = %54
  br label %56

56:                                               ; preds = %55
  br label %57

57:                                               ; preds = %56
  %58 = load i64, ptr @H5E_FUNC_g, align 8
  %59 = load i64, ptr @H5E_CANTSET_g, align 8
  %60 = call i32 (ptr, ptr, i32, i64, i64, ptr, ...) @H5E_printf_stack(ptr noundef @.str.30, ptr noundef @__func__.H5atclose, i32 noundef 1042, i64 noundef %58, i64 noundef %59, ptr noundef @.str.67)
  br label %61

61:                                               ; preds = %57
  store i8 1, ptr %8, align 1
  %62 = load i8, ptr %8, align 1
  %63 = trunc i8 %62 to i1
  %64 = zext i1 %63 to i8
  store i8 %64, ptr %8, align 1
  br label %65

65:                                               ; preds = %61
  br label %66

66:                                               ; preds = %65
  store i32 -1, ptr %6, align 4
  br label %118

67:                                               ; No predecessors!
  br label %68

68:                                               ; preds = %67
  br label %70

69:                                               ; preds = %46
  store i8 1, ptr %7, align 1
  br label %70

70:                                               ; preds = %69, %68
  %71 = call i32 @H5E_clear_stack()
  %72 = load ptr, ptr %3, align 8
  %73 = icmp eq ptr null, %72
  br i1 %73, label %74, label %89

74:                                               ; preds = %70
  br label %75

75:                                               ; preds = %74
  br label %76

76:                                               ; preds = %75
  br label %77

77:                                               ; preds = %76
  %78 = load i64, ptr @H5E_ARGS_g, align 8
  %79 = load i64, ptr @H5E_BADVALUE_g, align 8
  %80 = call i32 (ptr, ptr, i32, i64, i64, ptr, ...) @H5E_printf_stack(ptr noundef @.str.30, ptr noundef @__func__.H5atclose, i32 noundef 1046, i64 noundef %78, i64 noundef %79, ptr noundef @.str.84)
  br label %81

81:                                               ; preds = %77
  store i8 1, ptr %8, align 1
  %82 = load i8, ptr %8, align 1
  %83 = trunc i8 %82 to i1
  %84 = zext i1 %83 to i8
  store i8 %84, ptr %8, align 1
  br label %85

85:                                               ; preds = %81
  br label %86

86:                                               ; preds = %85
  store i32 -1, ptr %6, align 4
  br label %118

87:                                               ; No predecessors!
  br label %88

88:                                               ; preds = %87
  br label %89

89:                                               ; preds = %88, %70
  %90 = call noalias ptr @H5FL_reg_malloc(ptr noundef @H5_H5_atclose_node_t_reg_free_list)
  store ptr %90, ptr %5, align 8
  %91 = icmp eq ptr null, %90
  br i1 %91, label %92, label %107

92:                                               ; preds = %89
  br label %93

93:                                               ; preds = %92
  br label %94

94:                                               ; preds = %93
  br label %95

95:                                               ; preds = %94
  %96 = load i64, ptr @H5E_RESOURCE_g, align 8
  %97 = load i64, ptr @H5E_CANTALLOC_g, align 8
  %98 = call i32 (ptr, ptr, i32, i64, i64, ptr, ...) @H5E_printf_stack(ptr noundef @.str.30, ptr noundef @__func__.H5atclose, i32 noundef 1050, i64 noundef %96, i64 noundef %97, ptr noundef @.str.85)
  br label %99

99:                                               ; preds = %95
  store i8 1, ptr %8, align 1
  %100 = load i8, ptr %8, align 1
  %101 = trunc i8 %100 to i1
  %102 = zext i1 %101 to i8
  store i8 %102, ptr %8, align 1
  br label %103

103:                                              ; preds = %99
  br label %104

104:                                              ; preds = %103
  store i32 -1, ptr %6, align 4
  br label %118

105:                                              ; No predecessors!
  br label %106

106:                                              ; preds = %105
  br label %107

107:                                              ; preds = %106, %89
  %108 = load ptr, ptr %3, align 8
  %109 = load ptr, ptr %5, align 8
  %110 = getelementptr inbounds %struct.H5_atclose_node_t, ptr %109, i32 0, i32 0
  store ptr %108, ptr %110, align 8
  %111 = load ptr, ptr %4, align 8
  %112 = load ptr, ptr %5, align 8
  %113 = getelementptr inbounds %struct.H5_atclose_node_t, ptr %112, i32 0, i32 1
  store ptr %111, ptr %113, align 8
  %114 = load ptr, ptr @H5_atclose_head, align 8
  %115 = load ptr, ptr %5, align 8
  %116 = getelementptr inbounds %struct.H5_atclose_node_t, ptr %115, i32 0, i32 2
  store ptr %114, ptr %116, align 8
  %117 = load ptr, ptr %5, align 8
  store ptr %117, ptr @H5_atclose_head, align 8
  br label %118

118:                                              ; preds = %107, %104, %86, %66, %42
  %119 = load i8, ptr %7, align 1
  %120 = trunc i8 %119 to i1
  %121 = xor i1 %120, true
  %122 = xor i1 %121, true
  %123 = zext i1 %122 to i32
  %124 = sext i32 %123 to i64
  %125 = icmp ne i64 %124, 0
  br i1 %125, label %126, label %128

126:                                              ; preds = %118
  %127 = call i32 @H5CX_pop(i1 noundef zeroext true)
  store i8 0, ptr %7, align 1
  br label %128

128:                                              ; preds = %126, %118
  %129 = load i8, ptr %8, align 1
  %130 = trunc i8 %129 to i1
  %131 = xor i1 %130, true
  %132 = xor i1 %131, true
  %133 = zext i1 %132 to i32
  %134 = sext i32 %133 to i64
  %135 = icmp ne i64 %134, 0
  br i1 %135, label %136, label %138

136:                                              ; preds = %128
  %137 = call i32 @H5E_dump_api_stack()
  br label %138

138:                                              ; preds = %136, %128
  %139 = load i32, ptr %6, align 4
  ret i32 %139
}