; Function Attrs: nounwind uwtable
define range(i32 -1, 1) i32 @H5atclose(ptr noundef %0, ptr noundef %1) local_unnamed_addr #0 {
  %3 = load i8, ptr @H5_libinit_g, align 1
  %4 = trunc i8 %3 to i1
  %5 = load i8, ptr @H5_libterm_g, align 1
  %6 = trunc i8 %5 to i1
  %7 = select i1 %4, i1 true, i1 %6
  br i1 %7, label %15, label %8

8:                                                ; preds = %2
  %9 = tail call i32 @H5_init_library()
  %10 = icmp slt i32 %9, 0
  br i1 %10, label %11, label %15

11:                                               ; preds = %8
  %12 = load i64, ptr @H5E_FUNC_g, align 8
  %13 = load i64, ptr @H5E_CANTINIT_g, align 8
  %14 = tail call i32 (ptr, ptr, i32, i64, i64, ptr, ...) @H5E_printf_stack(ptr noundef nonnull @.str.30, ptr noundef nonnull @__func__.H5atclose, i32 noundef 1042, i64 noundef %12, i64 noundef %13, ptr noundef nonnull @.str.66) #21
  br label %.thread25

15:                                               ; preds = %8, %2
  %16 = tail call i32 @H5CX_push() #21
  %17 = icmp slt i32 %16, 0
  br i1 %17, label %18, label %22

18:                                               ; preds = %15
  %19 = load i64, ptr @H5E_FUNC_g, align 8
  %20 = load i64, ptr @H5E_CANTSET_g, align 8
  %21 = tail call i32 (ptr, ptr, i32, i64, i64, ptr, ...) @H5E_printf_stack(ptr noundef nonnull @.str.30, ptr noundef nonnull @__func__.H5atclose, i32 noundef 1042, i64 noundef %19, i64 noundef %20, ptr noundef nonnull @.str.67) #21
  br label %.thread25

22:                                               ; preds = %15
  %23 = tail call i32 @H5E_clear_stack() #21
  %24 = icmp eq ptr %0, null
  br i1 %24, label %25, label %29

25:                                               ; preds = %22
  %26 = load i64, ptr @H5E_ARGS_g, align 8
  %27 = load i64, ptr @H5E_BADVALUE_g, align 8
  %28 = tail call i32 (ptr, ptr, i32, i64, i64, ptr, ...) @H5E_printf_stack(ptr noundef nonnull @.str.30, ptr noundef nonnull @__func__.H5atclose, i32 noundef 1046, i64 noundef %26, i64 noundef %27, ptr noundef nonnull @.str.84) #21
  br label %.thread31

29:                                               ; preds = %22
  %30 = tail call noalias ptr @H5FL_reg_malloc(ptr noundef nonnull @H5_H5_atclose_node_t_reg_free_list) #21
  %31 = icmp eq ptr %30, null
  br i1 %31, label %32, label %37

32:                                               ; preds = %29
  %33 = load i64, ptr @H5E_RESOURCE_g, align 8
  %34 = load i64, ptr @H5E_CANTALLOC_g, align 8
  %35 = tail call i32 (ptr, ptr, i32, i64, i64, ptr, ...) @H5E_printf_stack(ptr noundef nonnull @.str.30, ptr noundef nonnull @__func__.H5atclose, i32 noundef 1050, i64 noundef %33, i64 noundef %34, ptr noundef nonnull @.str.85) #21
  br label %.thread31

.thread31:                                        ; preds = %32, %25
  %36 = tail call i32 @H5CX_pop(i1 noundef zeroext true) #21
  br label %.thread25

37:                                               ; preds = %29
  store ptr %0, ptr %30, align 8
  %38 = getelementptr inbounds i8, ptr %30, i64 8
  store ptr %1, ptr %38, align 8
  %39 = load ptr, ptr @H5_atclose_head, align 8
  %40 = getelementptr inbounds i8, ptr %30, i64 16
  store ptr %39, ptr %40, align 8
  store ptr %30, ptr @H5_atclose_head, align 8
  %41 = tail call i32 @H5CX_pop(i1 noundef zeroext true) #21
  br label %43

.thread25:                                        ; preds = %18, %11, %.thread31
  %42 = tail call i32 @H5E_dump_api_stack() #21
  br label %43

43:                                               ; preds = %37, %.thread25
  %.0142028 = phi i32 [ -1, %.thread25 ], [ 0, %37 ]
  ret i32 %.0142028
}